target datalayout = "e-m:e-p270:32:32-p271:32:32-p272:64:64-i64:64-i128:128-f80:128-n8:16:32:64-S128"
target triple = "x86_64-pc-linux-gnu"

%class.bv2int_translator = type <{ ptr, ptr, %class.bv_util, %class.arith_util, %class.obj_map, %class.ref_vector, %class.ref_vector, %class.ref_vector.0, %class.ptr_vector.5, %class.ptr_vector.5, %class.ref_vector, %class.ref_vector, i8, [7 x i8] }>
%class.bv_util = type { %class.bv_recognizers, ptr, ptr }
%class.bv_recognizers = type { i32 }
%class.arith_util = type { ptr, ptr }
%class.obj_map = type { %class.core_hashtable }
%class.core_hashtable = type <{ ptr, i32, i32, i32, [4 x i8] }>
%class.ref_vector.0 = type { %class.ref_vector_core.1 }
%class.ref_vector_core.1 = type { %class.ref_manager_wrapper.2, %class.ptr_vector.3 }
%class.ref_manager_wrapper.2 = type { ptr }
%class.ptr_vector.3 = type { %class.vector.4 }
%class.vector.4 = type { ptr }
%class.ptr_vector.5 = type { %class.vector.6 }
%class.vector.6 = type { ptr }
%class.ref_vector = type { %class.ref_vector_core }
%class.ref_vector_core = type { %class.ref_manager_wrapper, %class.ptr_vector }
%class.ref_manager_wrapper = type { ptr }
%class.ptr_vector = type { %class.vector }
%class.vector = type { ptr }
%class.ast = type { i32, i32, i32, i32 }
%class.rational = type { %class.mpq }
%class.mpq = type { %class.mpz, %class.mpz }
%class.mpz = type { i32, i8, ptr }
%class.symbol = type { ptr }
%"class.std::exception" = type { ptr }
%class.decl = type { %class.ast, %class.symbol, ptr }
%class.parameter = type { %"class.std::variant" }
%"class.std::variant" = type { %"struct.std::__detail::__variant::_Variant_base.base", [7 x i8] }
%"struct.std::__detail::__variant::_Variant_base.base" = type { %"struct.std::__detail::__variant::_Move_assign_base.base" }
%"struct.std::__detail::__variant::_Move_assign_base.base" = type { %"struct.std::__detail::__variant::_Copy_assign_base.base" }
%"struct.std::__detail::__variant::_Copy_assign_base.base" = type { %"struct.std::__detail::__variant::_Move_ctor_base.base" }
%"struct.std::__detail::__variant::_Move_ctor_base.base" = type { %"struct.std::__detail::__variant::_Copy_ctor_base.base" }
%"struct.std::__detail::__variant::_Copy_ctor_base.base" = type { %"struct.std::__detail::__variant::_Variant_storage.base" }
%"struct.std::__detail::__variant::_Variant_storage.base" = type <{ %"union.std::__detail::__variant::_Variadic_union", i8 }>
%"union.std::__detail::__variant::_Variadic_union" = type { %"union.std::__detail::__variant::_Variadic_union.41" }
%"union.std::__detail::__variant::_Variadic_union.41" = type { %"struct.std::__detail::__variant::_Uninitialized.42" }
%"struct.std::__detail::__variant::_Uninitialized.42" = type { ptr }
%class.decl_info = type <{ i32, i32, %class.vector.56, i8, [7 x i8] }>
%class.vector.56 = type { ptr }
%"struct.std::__detail::__variant::_Variant_storage" = type <{ %"union.std::__detail::__variant::_Variadic_union", i8, [7 x i8] }>
%"struct.std::__detail::__variant::_Uninitialized" = type { i32 }
%"class.std::bad_variant_access" = type { %"class.std::exception", ptr }

@_ZTVSt9exception = available_externally unnamed_addr constant { [5 x ptr] } { [5 x ptr] [ptr null, ptr @_ZTISt9exception, ptr @_ZNSt9exceptionD1Ev, ptr @_ZNSt9exceptionD0Ev, ptr @_ZNKSt9exception4whatEv] }, align 8
@.str.17 = private unnamed_addr constant [31 x i8] c"std::get: variant is valueless\00", align 1
@.str.18 = private unnamed_addr constant [34 x i8] c"std::get: wrong index for variant\00", align 1
@_ZTISt18bad_variant_access = linkonce_odr constant { ptr, ptr, ptr } { ptr getelementptr inbounds (ptr, ptr @_ZTVN10__cxxabiv120__si_class_type_infoE, i64 2), ptr @_ZTSSt18bad_variant_access, ptr @_ZTISt9exception }, comdat, align 8
@_ZTVSt18bad_variant_access = linkonce_odr unnamed_addr constant { [5 x ptr] } { [5 x ptr] [ptr null, ptr @_ZTISt18bad_variant_access, ptr @_ZNSt9exceptionD2Ev, ptr @_ZNSt18bad_variant_accessD0Ev, ptr @_ZNKSt18bad_variant_access4whatEv] }, comdat, align 8

; Function Attrs: mustprogress nounwind uwtable
define linkonce_odr hidden void @_ZNSt9exceptionC2Ev(ptr noundef nonnull align 8 dereferenceable(8) %0) unnamed_addr #5 comdat align 2 {
  %2 = alloca ptr, align 8
  store ptr %0, ptr %2, align 8, !tbaa !258
  %3 = load ptr, ptr %2, align 8
  store ptr getelementptr inbounds inrange(-16, 24) ({ [5 x ptr] }, ptr @_ZTVSt9exception, i32 0, i32 0, i32 2), ptr %3, align 8, !tbaa !69
  ret void
}

; Function Attrs: mustprogress nounwind uwtable
define linkonce_odr hidden noundef nonnull align 4 dereferenceable(4) ptr @_ZNKRSt8__detail9__variant14_UninitializedIiLb1EE6_M_getEv(ptr noundef nonnull align 4 dereferenceable(4) %0) #5 comdat align 2 {
  %2 = alloca ptr, align 8
  store ptr %0, ptr %2, align 8, !tbaa !296
  %3 = load ptr, ptr %2, align 8
  %4 = getelementptr inbounds nuw %"struct.std::__detail::__variant::_Uninitialized", ptr %3, i32 0, i32 0
  ret ptr %4
}

; Function Attrs: mustprogress nounwind uwtable
define linkonce_odr hidden void @_ZNSt18bad_variant_accessC2EPKc(ptr noundef nonnull align 8 dereferenceable(16) %0, ptr noundef %1) unnamed_addr #5 comdat align 2 {
  %3 = alloca ptr, align 8
  %4 = alloca ptr, align 8
  store ptr %0, ptr %3, align 8, !tbaa !300
  store ptr %1, ptr %4, align 8, !tbaa !134
  %5 = load ptr, ptr %3, align 8
  call void @_ZNSt9exceptionC2Ev(ptr noundef nonnull align 8 dereferenceable(8) %5) #3
  store ptr getelementptr inbounds inrange(-16, 24) ({ [5 x ptr] }, ptr @_ZTVSt18bad_variant_access, i32 0, i32 0, i32 2), ptr %5, align 8, !tbaa !69
  %6 = getelementptr inbounds nuw %"class.std::bad_variant_access", ptr %5, i32 0, i32 1
  %7 = load ptr, ptr %4, align 8, !tbaa !134
  store ptr %7, ptr %6, align 8, !tbaa !302
  ret void
}

; Function Attrs: mustprogress nounwind uwtable
define linkonce_odr hidden noundef nonnull align 4 dereferenceable(4) ptr @_ZNSt8__detail9__variant7__get_nILm0ERKNS0_15_Variadic_unionIJiP3ast6symbolP7zstringP8rationaldjEEEEEDcOT0_(ptr noundef nonnull align 8 dereferenceable(8) %0) #5 comdat {
  %2 = alloca ptr, align 8
  store ptr %0, ptr %2, align 8, !tbaa !294
  %3 = load ptr, ptr %2, align 8, !tbaa !294
  %4 = call noundef nonnull align 4 dereferenceable(4) ptr @_ZNKRSt8__detail9__variant14_UninitializedIiLb1EE6_M_getEv(ptr noundef nonnull align 4 dereferenceable(4) %3) #3
  ret ptr %4
}

; Function Attrs: inlinehint mustprogress uwtable
define linkonce_odr void @_ZSt26__throw_bad_variant_accessPKc(ptr noundef %0) #8 comdat {
  %2 = alloca ptr, align 8
  store ptr %0, ptr %2, align 8, !tbaa !134
  %3 = call ptr @__cxa_allocate_exception(i64 16) #3
  %4 = load ptr, ptr %2, align 8, !tbaa !134
  call void @_ZNSt18bad_variant_accessC2EPKc(ptr noundef nonnull align 8 dereferenceable(16) %3, ptr noundef %4) #3
  call void @__cxa_throw(ptr %3, ptr @_ZTISt18bad_variant_access, ptr @_ZNSt9exceptionD2Ev) #21
  unreachable
}

; Function Attrs: mustprogress nounwind uwtable
define linkonce_odr hidden noundef zeroext i1 @_ZNKSt8__detail9__variant16_Variant_storageILb1EJiP3ast6symbolP7zstringP8rationaldjEE8_M_validEv(ptr noundef nonnull align 8 dereferenceable(9) %0) #5 comdat align 2 {
  %2 = alloca ptr, align 8
  store ptr %0, ptr %2, align 8, !tbaa !290
  ret i1 true
}

; Function Attrs: mustprogress nounwind uwtable
define linkonce_odr hidden noundef nonnull align 4 dereferenceable(4) ptr @_ZNSt8__detail9__variant5__getILm0ERKSt7variantIJiP3ast6symbolP7zstringP8rationaldjEEEEDcOT0_(ptr noundef nonnull align 8 dereferenceable(9) %0) #5 comdat {
  %2 = alloca ptr, align 8
  store ptr %0, ptr %2, align 8, !tbaa !274
  %3 = load ptr, ptr %2, align 8, !tbaa !274
  %4 = getelementptr inbounds nuw %"struct.std::__detail::__variant::_Variant_storage", ptr %3, i32 0, i32 0
  %5 = call noundef nonnull align 4 dereferenceable(4) ptr @_ZNSt8__detail9__variant7__get_nILm0ERKNS0_15_Variadic_unionIJiP3ast6symbolP7zstringP8rationaldjEEEEEDcOT0_(ptr noundef nonnull align 8 dereferenceable(8) %4) #3
  ret ptr %5
}

; Function Attrs: inlinehint mustprogress uwtable
define linkonce_odr void @_ZSt26__throw_bad_variant_accessb(i1 noundef zeroext %0) #8 comdat {
  %2 = alloca i8, align 1
  %3 = zext i1 %0 to i8
  store i8 %3, ptr %2, align 1, !tbaa !54
  %4 = load i8, ptr %2, align 1, !tbaa !54, !range !58, !noundef !59
  %5 = trunc i8 %4 to i1
  %6 = call i1 @llvm.expect.i1(i1 %5, i1 false)
  br i1 %6, label %7, label %8

7:                                                ; preds = %1
  call void @_ZSt26__throw_bad_variant_accessPKc(ptr noundef @.str.17)
  br label %9

8:                                                ; preds = %1
  call void @_ZSt26__throw_bad_variant_accessPKc(ptr noundef @.str.18)
  br label %9

9:                                                ; preds = %8, %7
  ret void
}

; Function Attrs: mustprogress nounwind uwtable
define linkonce_odr hidden noundef zeroext i1 @_ZNKSt7variantIJiP3ast6symbolP7zstringP8rationaldjEE22valueless_by_exceptionEv(ptr noundef nonnull align 8 dereferenceable(9) %0) #5 comdat align 2 {
  %2 = alloca ptr, align 8
  store ptr %0, ptr %2, align 8, !tbaa !274
  %3 = load ptr, ptr %2, align 8
  %4 = call noundef zeroext i1 @_ZNKSt8__detail9__variant16_Variant_storageILb1EJiP3ast6symbolP7zstringP8rationaldjEE8_M_validEv(ptr noundef nonnull align 8 dereferenceable(9) %3) #3
  %5 = xor i1 %4, true
  ret i1 %5
}

; Function Attrs: mustprogress nounwind uwtable
define linkonce_odr hidden noundef i64 @_ZNKSt7variantIJiP3ast6symbolP7zstringP8rationaldjEE5indexEv(ptr noundef nonnull align 8 dereferenceable(9) %0) #5 comdat align 2 {
  %2 = alloca ptr, align 8
  store ptr %0, ptr %2, align 8, !tbaa !274
  %3 = load ptr, ptr %2, align 8
  %4 = getelementptr inbounds nuw %"struct.std::__detail::__variant::_Variant_storage", ptr %3, i32 0, i32 1
  %5 = load i8, ptr %4, align 8, !tbaa !292
  %6 = zext i8 %5 to i64
  ret i64 %6
}

; Function Attrs: mustprogress uwtable
define linkonce_odr hidden noundef nonnull align 4 dereferenceable(4) ptr @_ZSt3getILm0EJiP3ast6symbolP7zstringP8rationaldjEERKNSt19variant_alternativeIXT_ESt7variantIJDpT0_EEE4typeERKSB_(ptr noundef nonnull align 8 dereferenceable(9) %0) #4 comdat {
  %2 = alloca ptr, align 8
  store ptr %0, ptr %2, align 8, !tbaa !274
  %3 = load ptr, ptr %2, align 8, !tbaa !274
  %4 = call noundef i64 @_ZNKSt7variantIJiP3ast6symbolP7zstringP8rationaldjEE5indexEv(ptr noundef nonnull align 8 dereferenceable(9) %3) #3
  %5 = icmp ne i64 %4, 0
  br i1 %5, label %6, label %9

6:                                                ; preds = %1
  %7 = load ptr, ptr %2, align 8, !tbaa !274
  %8 = call noundef zeroext i1 @_ZNKSt7variantIJiP3ast6symbolP7zstringP8rationaldjEE22valueless_by_exceptionEv(ptr noundef nonnull align 8 dereferenceable(9) %7) #3
  call void @_ZSt26__throw_bad_variant_accessb(i1 noundef zeroext %8)
  br label %9

9:                                                ; preds = %6, %1
  %10 = load ptr, ptr %2, align 8, !tbaa !274
  %11 = call noundef nonnull align 4 dereferenceable(4) ptr @_ZNSt8__detail9__variant5__getILm0ERKSt7variantIJiP3ast6symbolP7zstringP8rationaldjEEEEDcOT0_(ptr noundef nonnull align 8 dereferenceable(9) %10) #3
  ret ptr %11
}

; Function Attrs: mustprogress nounwind uwtable
define linkonce_odr hidden noundef nonnull align 8 dereferenceable(16) ptr @_ZNK6vectorI9parameterLb1EjEixEj(ptr noundef nonnull align 8 dereferenceable(8) %0, i32 noundef %1) #5 comdat align 2 {
  %3 = alloca ptr, align 8
  %4 = alloca i32, align 4
  store ptr %0, ptr %3, align 8, !tbaa !233
  store i32 %1, ptr %4, align 4, !tbaa !55
  %5 = load ptr, ptr %3, align 8
  %6 = getelementptr inbounds nuw %class.vector.56, ptr %5, i32 0, i32 0
  %7 = load ptr, ptr %6, align 8, !tbaa !235
  %8 = load i32, ptr %4, align 4, !tbaa !55
  %9 = zext i32 %8 to i64
  %10 = getelementptr inbounds nuw %class.parameter, ptr %7, i64 %9
  ret ptr %10
}

; Function Attrs: mustprogress uwtable
define linkonce_odr hidden noundef nonnull align 4 dereferenceable(4) ptr @_ZSt3getIiJiP3ast6symbolP7zstringP8rationaldjEERKT_RKSt7variantIJDpT0_EE(ptr noundef nonnull align 8 dereferenceable(9) %0) #4 comdat {
  %2 = alloca ptr, align 8
  %3 = alloca i64, align 8
  store ptr %0, ptr %2, align 8, !tbaa !274
  call void @llvm.lifetime.start.p0(i64 8, ptr %3) #3
  store i64 0, ptr %3, align 8, !tbaa !221
  %4 = load ptr, ptr %2, align 8, !tbaa !274
  %5 = call noundef nonnull align 4 dereferenceable(4) ptr @_ZSt3getILm0EJiP3ast6symbolP7zstringP8rationaldjEERKNSt19variant_alternativeIXT_ESt7variantIJDpT0_EEE4typeERKSB_(ptr noundef nonnull align 8 dereferenceable(9) %4)
  call void @llvm.lifetime.end.p0(i64 8, ptr %3) #3
  ret ptr %5
}

; Function Attrs: mustprogress uwtable
define linkonce_odr hidden noundef nonnull align 8 dereferenceable(16) ptr @_ZNK9decl_info13get_parameterEj(ptr noundef nonnull align 8 dereferenceable(17) %0, i32 noundef %1) #4 comdat align 2 {
  %3 = alloca ptr, align 8
  %4 = alloca i32, align 4
  store ptr %0, ptr %3, align 8, !tbaa !232
  store i32 %1, ptr %4, align 4, !tbaa !55
  %5 = load ptr, ptr %3, align 8
  %6 = getelementptr inbounds nuw %class.decl_info, ptr %5, i32 0, i32 2
  %7 = load i32, ptr %4, align 4, !tbaa !55
  %8 = call noundef nonnull align 8 dereferenceable(16) ptr @_ZNK6vectorI9parameterLb1EjEixEj(ptr noundef nonnull align 8 dereferenceable(8) %6, i32 noundef %7)
  ret ptr %8
}

; Function Attrs: mustprogress uwtable
define linkonce_odr hidden noundef i32 @_ZNK9parameter7get_intEv(ptr noundef nonnull align 8 dereferenceable(16) %0) #4 comdat align 2 {
  %2 = alloca ptr, align 8
  store ptr %0, ptr %2, align 8, !tbaa !192
  %3 = load ptr, ptr %2, align 8
  %4 = getelementptr inbounds nuw %class.parameter, ptr %3, i32 0, i32 0
  %5 = call noundef nonnull align 4 dereferenceable(4) ptr @_ZSt3getIiJiP3ast6symbolP7zstringP8rationaldjEERKT_RKSt7variantIJDpT0_EE(ptr noundef nonnull align 8 dereferenceable(9) %4)
  %6 = load i32, ptr %5, align 4, !tbaa !55
  ret i32 %6
}

; Function Attrs: mustprogress uwtable
define linkonce_odr hidden noundef nonnull align 8 dereferenceable(16) ptr @_ZNK4decl13get_parameterEj(ptr noundef nonnull align 8 dereferenceable(32) %0, i32 noundef %1) #4 comdat align 2 {
  %3 = alloca ptr, align 8
  %4 = alloca i32, align 4
  store ptr %0, ptr %3, align 8, !tbaa !157
  store i32 %1, ptr %4, align 4, !tbaa !55
  %5 = load ptr, ptr %3, align 8
  %6 = getelementptr inbounds nuw %class.decl, ptr %5, i32 0, i32 2
  %7 = load ptr, ptr %6, align 8, !tbaa !159
  %8 = load i32, ptr %4, align 4, !tbaa !55
  %9 = call noundef nonnull align 8 dereferenceable(16) ptr @_ZNK9decl_info13get_parameterEj(ptr noundef nonnull align 8 dereferenceable(17) %7, i32 noundef %8)
  ret ptr %9
}

; Function Attrs: mustprogress nounwind uwtable
define linkonce_odr hidden noundef nonnull align 8 dereferenceable(8) ptr @_ZNK6vectorIP4exprLb0EjEixEj(ptr noundef nonnull align 8 dereferenceable(8) %0, i32 noundef %1) #5 comdat align 2 {
  %3 = alloca ptr, align 8
  %4 = alloca i32, align 4
  store ptr %0, ptr %3, align 8, !tbaa !91
  store i32 %1, ptr %4, align 4, !tbaa !55
  %5 = load ptr, ptr %3, align 8
  %6 = getelementptr inbounds nuw %class.vector, ptr %5, i32 0, i32 0
  %7 = load ptr, ptr %6, align 8, !tbaa !93
  %8 = load i32, ptr %4, align 4, !tbaa !55
  %9 = zext i32 %8 to i64
  %10 = getelementptr inbounds nuw ptr, ptr %7, i64 %9
  ret ptr %10
}

; Function Attrs: mustprogress uwtable
define linkonce_odr hidden noundef i32 @_ZNK7bv_util11get_bv_sizeEPK4sort(ptr noundef nonnull align 8 dereferenceable(24) %0, ptr noundef %1) #4 comdat align 2 {
  %3 = alloca ptr, align 8
  %4 = alloca ptr, align 8
  store ptr %0, ptr %3, align 8, !tbaa !101
  store ptr %1, ptr %4, align 8, !tbaa !103
  %5 = load ptr, ptr %4, align 8, !tbaa !103
  %6 = call noundef nonnull align 8 dereferenceable(16) ptr @_ZNK4decl13get_parameterEj(ptr noundef nonnull align 8 dereferenceable(32) %5, i32 noundef 0)
  %7 = call noundef i32 @_ZNK9parameter7get_intEv(ptr noundef nonnull align 8 dereferenceable(16) %6)
  ret i32 %7
}

; Function Attrs: mustprogress uwtable
define linkonce_odr hidden noundef ptr @_ZNK15ref_vector_coreI4expr19ref_manager_wrapperIS0_11ast_managerEE3getEj(ptr noundef nonnull align 8 dereferenceable(16) %0, i32 noundef %1) #4 comdat align 2 {
  %3 = alloca ptr, align 8
  %4 = alloca i32, align 4
  store ptr %0, ptr %3, align 8, !tbaa !48
  store i32 %1, ptr %4, align 4, !tbaa !55
  %5 = load ptr, ptr %3, align 8
  %6 = getelementptr inbounds nuw %class.ref_vector_core, ptr %5, i32 0, i32 1
  %7 = load i32, ptr %4, align 4, !tbaa !55
  %8 = call noundef nonnull align 8 dereferenceable(8) ptr @_ZNK6vectorIP4exprLb0EjEixEj(ptr noundef nonnull align 8 dereferenceable(8) %6, i32 noundef %7)
  %9 = load ptr, ptr %8, align 8, !tbaa !63
  ret ptr %9
}

; Function Attrs: mustprogress uwtable
define hidden void @_ZN17bv2int_translator7bv_sizeEP4expr(ptr dead_on_unwind noalias writable sret(%class.rational) align 8 %0, ptr noundef nonnull align 8 dereferenceable(177) %1, ptr noundef %2) #4 align 2 {
  %4 = alloca ptr, align 8
  %5 = alloca ptr, align 8
  %6 = alloca ptr, align 8
  store ptr %0, ptr %4, align 8
  store ptr %1, ptr %5, align 8, !tbaa !3
  store ptr %2, ptr %6, align 8, !tbaa !63
  %7 = load ptr, ptr %5, align 8
  %8 = getelementptr inbounds nuw %class.bv2int_translator, ptr %7, i32 0, i32 2
  %9 = load ptr, ptr %6, align 8, !tbaa !63
  %10 = call noundef ptr @_ZNK4expr8get_sortEv(ptr noundef nonnull align 4 dereferenceable(16) %9)
  %11 = call noundef i32 @_ZNK7bv_util11get_bv_sizeEPK4sort(ptr noundef nonnull align 8 dereferenceable(24) %8, ptr noundef %10)
  call void @_ZN8rational12power_of_twoEj(ptr dead_on_unwind writable sret(%class.rational) align 8 %0, i32 noundef %11)
  ret void
}

; Function Attrs: mustprogress uwtable
define linkonce_odr hidden noundef ptr @_ZN17bv2int_translator3argEj(ptr noundef nonnull align 8 dereferenceable(177) %0, i32 noundef %1) #4 comdat align 2 {
  %3 = alloca ptr, align 8
  %4 = alloca i32, align 4
  store ptr %0, ptr %3, align 8, !tbaa !3
  store i32 %1, ptr %4, align 4, !tbaa !55
  %5 = load ptr, ptr %3, align 8
  %6 = getelementptr inbounds nuw %class.bv2int_translator, ptr %5, i32 0, i32 6
  %7 = load i32, ptr %4, align 4, !tbaa !55
  %8 = call noundef ptr @_ZNK15ref_vector_coreI4expr19ref_manager_wrapperIS0_11ast_managerEE3getEj(ptr noundef nonnull align 8 dereferenceable(16) %6, i32 noundef %7)
  ret ptr %8
}

; Function Attrs: mustprogress uwtable
define hidden noundef ptr @_ZN17bv2int_translator4umodEP4exprj(ptr noundef nonnull align 8 dereferenceable(177) %0, ptr noundef %1, i32 noundef %2) #4 align 2 personality ptr @__gxx_personality_v0 {
  %4 = alloca ptr, align 8
  %5 = alloca ptr, align 8
  %6 = alloca i32, align 4
  %7 = alloca ptr, align 8
  %8 = alloca %class.rational, align 8
  %9 = alloca ptr, align 8
  %10 = alloca i32, align 4
  store ptr %0, ptr %4, align 8, !tbaa !3
  store ptr %1, ptr %5, align 8, !tbaa !63
  store i32 %2, ptr %6, align 4, !tbaa !55
  %11 = load ptr, ptr %4, align 8
  call void @llvm.lifetime.start.p0(i64 8, ptr %7) #3
  %12 = load i32, ptr %6, align 4, !tbaa !55
  %13 = call noundef ptr @_ZN17bv2int_translator3argEj(ptr noundef nonnull align 8 dereferenceable(177) %11, i32 noundef %12)
  store ptr %13, ptr %7, align 8, !tbaa !63
  call void @llvm.lifetime.start.p0(i64 32, ptr %8) #3
  %14 = load ptr, ptr %5, align 8, !tbaa !63
  call void @_ZN17bv2int_translator7bv_sizeEP4expr(ptr dead_on_unwind writable sret(%class.rational) align 8 %8, ptr noundef nonnull align 8 dereferenceable(177) %11, ptr noundef %14)
  %15 = load ptr, ptr %5, align 8, !tbaa !63
  %16 = load ptr, ptr %7, align 8, !tbaa !63
  %17 = invoke noundef ptr @_ZN17bv2int_translator4amodEP4exprS1_RK8rational(ptr noundef nonnull align 8 dereferenceable(177) %11, ptr noundef %15, ptr noundef %16, ptr noundef nonnull align 8 dereferenceable(32) %8)
          to label %18 unwind label %19

18:                                               ; preds = %3
  call void @_ZN8rationalD2Ev(ptr noundef nonnull align 8 dereferenceable(32) %8) #3
  call void @llvm.lifetime.end.p0(i64 32, ptr %8) #3
  call void @llvm.lifetime.end.p0(i64 8, ptr %7) #3
  ret ptr %17

19:                                               ; preds = %3
  %20 = landingpad { ptr, i32 }
          cleanup
  %21 = extractvalue { ptr, i32 } %20, 0
  store ptr %21, ptr %9, align 8
  %22 = extractvalue { ptr, i32 } %20, 1
  store i32 %22, ptr %10, align 4
  call void @_ZN8rationalD2Ev(ptr noundef nonnull align 8 dereferenceable(32) %8) #3
  call void @llvm.lifetime.end.p0(i64 32, ptr %8) #3
  call void @llvm.lifetime.end.p0(i64 8, ptr %7) #3
  br label %23

23:                                               ; preds = %19
  %24 = load ptr, ptr %9, align 8
  %25 = load i32, ptr %10, align 4
  %26 = insertvalue { ptr, i32 } poison, ptr %24, 0
  %27 = insertvalue { ptr, i32 } %26, i32 %25, 1
  resume { ptr, i32 } %27
}