; Function Attrs: mustprogress uwtable
define hidden noundef ptr @_ZN17bv2int_translator4umodEP4exprj(ptr noundef nonnull align 8 dereferenceable(177) %0, ptr noundef nonnull %1, i32 noundef %2) local_unnamed_addr #3 align 2 personality ptr @__gxx_personality_v0 {
  %4 = alloca %class.rational, align 8
  %5 = getelementptr inbounds nuw i8, ptr %0, i64 104
  %6 = load ptr, ptr %5, align 8, !tbaa !17
  %7 = zext i32 %2 to i64
  %8 = getelementptr inbounds nuw ptr, ptr %6, i64 %7
  %9 = load ptr, ptr %8, align 8, !tbaa !44
  call void @llvm.lifetime.start.p0(i64 32, ptr nonnull %4) #23
  %10 = tail call noundef ptr @_ZNK4expr8get_sortEv(ptr noundef nonnull align 4 dereferenceable(16) %1), !noalias !205
  %11 = getelementptr inbounds nuw i8, ptr %10, i64 24
  %12 = load ptr, ptr %11, align 8, !tbaa !79, !noalias !205
  %13 = getelementptr inbounds nuw i8, ptr %12, i64 8
  %14 = load ptr, ptr %13, align 8, !tbaa !97, !noalias !205
  %15 = getelementptr inbounds nuw i8, ptr %14, i64 8
  %16 = load i8, ptr %15, align 8, !tbaa !98, !noalias !205
  %.not.i.i.i.i.i = icmp eq i8 %16, 0
  br i1 %.not.i.i.i.i.i, label %_ZN17bv2int_translator7bv_sizeEP4expr.exit, label %17

17:                                               ; preds = %3
  %18 = tail call ptr @__cxa_allocate_exception(i64 16) #23, !noalias !205
  store ptr getelementptr inbounds nuw inrange(-16, 24) (i8, ptr @_ZTVSt18bad_variant_access, i64 16), ptr %18, align 8, !tbaa !58, !noalias !205
  %19 = getelementptr inbounds nuw i8, ptr %18, i64 8
  store ptr @.str.18, ptr %19, align 8, !tbaa !100, !noalias !205
  tail call void @__cxa_throw(ptr nonnull %18, ptr nonnull @_ZTISt18bad_variant_access, ptr nonnull @_ZNSt9exceptionD2Ev) #26, !noalias !205
  unreachable

_ZN17bv2int_translator7bv_sizeEP4expr.exit:       ; preds = %3
  %20 = load i32, ptr %14, align 4, !tbaa !43, !noalias !205
  call void @_ZN8rational12power_of_twoEj(ptr dead_on_unwind nonnull writable sret(%class.rational) align 8 %4, i32 noundef %20)
  %21 = invoke noundef ptr @_ZN17bv2int_translator4amodEP4exprS1_RK8rational(ptr noundef nonnull align 8 dereferenceable(177) %0, ptr noundef nonnull %1, ptr noundef %9, ptr noundef nonnull align 8 dereferenceable(32) %4)
          to label %22 unwind label %28

22:                                               ; preds = %_ZN17bv2int_translator7bv_sizeEP4expr.exit
  %23 = load ptr, ptr @_ZN8rational13g_mpq_managerE, align 8, !tbaa !120
  invoke void @_ZN11mpz_managerILb1EE3delEPS0_R3mpz(ptr noundef %23, ptr noundef nonnull align 8 dereferenceable(32) %4)
          to label %.noexc.i unwind label %25

.noexc.i:                                         ; preds = %22
  %24 = getelementptr inbounds nuw i8, ptr %4, i64 16
  invoke void @_ZN11mpz_managerILb1EE3delEPS0_R3mpz(ptr noundef %23, ptr noundef nonnull align 8 dereferenceable(16) %24)
          to label %_ZN8rationalD2Ev.exit unwind label %25

25:                                               ; preds = %.noexc.i, %22
  %26 = landingpad { ptr, i32 }
          catch ptr null
  %27 = extractvalue { ptr, i32 } %26, 0
  call void @__clang_call_terminate(ptr %27) #25
  unreachable

_ZN8rationalD2Ev.exit:                            ; preds = %.noexc.i
  call void @llvm.lifetime.end.p0(i64 32, ptr nonnull %4) #23
  ret ptr %21

28:                                               ; preds = %_ZN17bv2int_translator7bv_sizeEP4expr.exit
  %29 = landingpad { ptr, i32 }
          cleanup
  call void @_ZN8rationalD2Ev(ptr noundef nonnull align 8 dereferenceable(32) %4) #23
  call void @llvm.lifetime.end.p0(i64 32, ptr nonnull %4) #23
  resume { ptr, i32 } %29
}